; Function Attrs: nounwind uwtable
define dso_local noundef ptr @CreateWorkExprContext(ptr noundef %0) local_unnamed_addr #0 {
  %2 = load i32, ptr @work_mem, align 4
  %3 = sext i32 %2 to i64
  %4 = shl nsw i64 %3, 6
  %5 = and i64 %4, 1152921504606846912
  br label %6

6:                                                ; preds = %6, %1
  %.0 = phi i64 [ 8388608, %1 ], [ %8, %6 ]
  %7 = icmp samesign ugt i64 %.0, %5
  %8 = lshr i64 %.0, 1
  br i1 %7, label %6, label %9, !llvm.loop !7

9:                                                ; preds = %6
  %spec.store.select = tail call i64 @llvm.umax.i64(i64 %.0, i64 8192)
  %10 = getelementptr inbounds nuw i8, ptr %0, i64 192
  %11 = load ptr, ptr %10, align 8
  %12 = load ptr, ptr @CurrentMemoryContext, align 8
  store ptr %11, ptr @CurrentMemoryContext, align 8
  %13 = tail call noundef ptr @palloc0(i64 noundef 144) #12
  store i32 381, ptr %13, align 4
  %14 = getelementptr inbounds nuw i8, ptr %13, i64 8
  tail call void @llvm.memset.p0.i64(ptr noundef nonnull align 8 dereferenceable(24) %14, i8 0, i64 24, i1 false)
  %15 = load ptr, ptr %10, align 8
  %16 = getelementptr inbounds nuw i8, ptr %13, i64 32
  store ptr %15, ptr %16, align 8
  %17 = tail call ptr @AllocSetContextCreateInternal(ptr noundef %15, ptr noundef nonnull @.str.1, i64 noundef 0, i64 noundef 8192, i64 noundef range(i64 0, 1152921504606846976) %spec.store.select) #12
  %18 = getelementptr inbounds nuw i8, ptr %13, i64 40
  store ptr %17, ptr %18, align 8
  %19 = getelementptr inbounds nuw i8, ptr %0, i64 176
  %20 = load ptr, ptr %19, align 8
  %21 = getelementptr inbounds nuw i8, ptr %13, i64 48
  store ptr %20, ptr %21, align 8
  %22 = getelementptr inbounds nuw i8, ptr %0, i64 168
  %23 = load ptr, ptr %22, align 8
  %24 = getelementptr inbounds nuw i8, ptr %13, i64 56
  store ptr %23, ptr %24, align 8
  %25 = getelementptr inbounds nuw i8, ptr %13, i64 64
  %26 = getelementptr inbounds nuw i8, ptr %13, i64 88
  tail call void @llvm.memset.p0.i64(ptr noundef nonnull align 8 dereferenceable(24) %25, i8 0, i64 24, i1 false)
  store i8 1, ptr %26, align 8
  %27 = getelementptr inbounds nuw i8, ptr %13, i64 96
  store i64 0, ptr %27, align 8
  %28 = getelementptr inbounds nuw i8, ptr %13, i64 104
  store i8 1, ptr %28, align 8
  %29 = getelementptr inbounds nuw i8, ptr %13, i64 128
  store ptr %0, ptr %29, align 8
  %30 = getelementptr inbounds nuw i8, ptr %13, i64 136
  store ptr null, ptr %30, align 8
  %31 = getelementptr inbounds nuw i8, ptr %0, i64 240
  %32 = load ptr, ptr %31, align 8
  %33 = tail call ptr @lcons(ptr noundef nonnull %13, ptr noundef %32) #12
  store ptr %33, ptr %31, align 8
  store ptr %12, ptr @CurrentMemoryContext, align 8
  ret ptr %13
}